target datalayout = "e-m:e-p270:32:32-p271:32:32-p272:64:64-i64:64-i128:128-f80:128-n8:16:32:64-S128"
target triple = "x86_64-unknown-linux-gnu"

%"class.net::ReliableQuicStream" = type <{ ptr, %"class.std::__cxx11::list", i64, %"class.net::QuicStreamSequencer", i32, [4 x i8], ptr, i64, i64, i32, i32, i8, i8, i8, i8, i8, i8, i8, i8, i32, [4 x i8], %"class.net::QuicFlowController", ptr, i8, [7 x i8] }>
%"class.std::__cxx11::list" = type { %"class.std::__cxx11::_List_base" }
%"class.std::__cxx11::_List_base" = type { %"struct.std::__cxx11::_List_base<net::ReliableQuicStream::PendingData, std::allocator<net::ReliableQuicStream::PendingData>>::_List_impl" }
%"struct.std::__cxx11::_List_base<net::ReliableQuicStream::PendingData, std::allocator<net::ReliableQuicStream::PendingData>>::_List_impl" = type { %"struct.std::__detail::_List_node_header" }
%"struct.std::__detail::_List_node_header" = type { %"struct.std::__detail::_List_node_base", i64 }
%"struct.std::__detail::_List_node_base" = type { ptr, ptr }
%"class.net::QuicStreamSequencer" = type <{ ptr, ptr, %"class.net::QuicStreamSequencerBuffer", i64, i8, [3 x i8], i32, i32, [4 x i8], ptr, i8, [7 x i8] }>
%"class.net::QuicStreamSequencerBuffer" = type { i64, i64, i64, %"class.std::__cxx11::list.3", i8, %"class.std::unique_ptr", i64, %"class.std::map" }
%"class.std::__cxx11::list.3" = type { %"class.std::__cxx11::_List_base.4" }
%"class.std::__cxx11::_List_base.4" = type { %"struct.std::__cxx11::_List_base<net::QuicStreamSequencerBuffer::Gap, std::allocator<net::QuicStreamSequencerBuffer::Gap>>::_List_impl" }
%"struct.std::__cxx11::_List_base<net::QuicStreamSequencerBuffer::Gap, std::allocator<net::QuicStreamSequencerBuffer::Gap>>::_List_impl" = type { %"struct.std::__detail::_List_node_header" }
%"class.std::unique_ptr" = type { %"struct.std::__uniq_ptr_data" }
%"struct.std::__uniq_ptr_data" = type { %"class.std::__uniq_ptr_impl" }
%"class.std::__uniq_ptr_impl" = type { %"class.std::tuple" }
%"class.std::tuple" = type { %"struct.std::_Tuple_impl" }
%"struct.std::_Tuple_impl" = type { %"struct.std::_Head_base.9" }
%"struct.std::_Head_base.9" = type { ptr }
%"class.std::map" = type { %"class.std::_Rb_tree" }
%"class.std::_Rb_tree" = type { %"struct.std::_Rb_tree<unsigned long, std::pair<const unsigned long, net::QuicStreamSequencerBuffer::FrameInfo>, std::_Select1st<std::pair<const unsigned long, net::QuicStreamSequencerBuffer::FrameInfo>>, std::less<unsigned long>>::_Rb_tree_impl" }
%"struct.std::_Rb_tree<unsigned long, std::pair<const unsigned long, net::QuicStreamSequencerBuffer::FrameInfo>, std::_Select1st<std::pair<const unsigned long, net::QuicStreamSequencerBuffer::FrameInfo>>, std::less<unsigned long>>::_Rb_tree_impl" = type { %"struct.std::_Rb_tree_key_compare", %"struct.std::_Rb_tree_header" }
%"struct.std::_Rb_tree_key_compare" = type { %"struct.std::less" }
%"struct.std::less" = type { i8 }
%"struct.std::_Rb_tree_header" = type { %"struct.std::_Rb_tree_node_base", i64 }
%"struct.std::_Rb_tree_node_base" = type { i32, ptr, ptr, ptr }
%"class.net::QuicFlowController" = type { ptr, i32, i32, i64, i64, i64, i64, i64, i64, i64, i8, i64, %"class.net::QuicTime" }
%"class.net::QuicTime" = type { i64 }

; Function Attrs: mustprogress nounwind uwtable
define linkonce_odr dso_local noundef i32 @_ZNK3net18ReliableQuicStream2idEv(ptr noundef nonnull align 8 dereferenceable(377) %this) #2 comdat align 2 {
entry:
  %this.addr = alloca ptr, align 8
  store ptr %this, ptr %this.addr, align 8
  %this1 = load ptr, ptr %this.addr, align 8
  %id_ = getelementptr inbounds %"class.net::ReliableQuicStream", ptr %this1, i32 0, i32 4
  %0 = load i32, ptr %id_, align 8
  ret i32 %0
}

; Function Attrs: mustprogress uwtable
define dso_local void @_ZN3net18ReliableQuicStream13CloseReadSideEv(ptr noundef nonnull align 8 dereferenceable(377) %this) #0 align 2 {
entry:
  %this.addr = alloca ptr, align 8
  store ptr %this, ptr %this.addr, align 8
  %this1 = load ptr, ptr %this.addr, align 8
  %read_side_closed_ = getelementptr inbounds %"class.net::ReliableQuicStream", ptr %this1, i32 0, i32 11
  %0 = load i8, ptr %read_side_closed_, align 8
  %tobool = trunc i8 %0 to i1
  br i1 %tobool, label %if.then, label %if.end

if.then:                                          ; preds = %entry
  br label %if.end5

if.end:                                           ; preds = %entry
  %read_side_closed_2 = getelementptr inbounds %"class.net::ReliableQuicStream", ptr %this1, i32 0, i32 11
  store i8 1, ptr %read_side_closed_2, align 8
  %sequencer_ = getelementptr inbounds %"class.net::ReliableQuicStream", ptr %this1, i32 0, i32 3
  call void @_ZN3net19QuicStreamSequencer13ReleaseBufferEv(ptr noundef nonnull align 8 dereferenceable(169) %sequencer_)
  %write_side_closed_ = getelementptr inbounds %"class.net::ReliableQuicStream", ptr %this1, i32 0, i32 12
  %1 = load i8, ptr %write_side_closed_, align 1
  %tobool3 = trunc i8 %1 to i1
  br i1 %tobool3, label %if.then4, label %if.end5

if.then4:                                         ; preds = %if.end
  %session_ = getelementptr inbounds %"class.net::ReliableQuicStream", ptr %this1, i32 0, i32 6
  %2 = load ptr, ptr %session_, align 8
  %call = call noundef i32 @_ZNK3net18ReliableQuicStream2idEv(ptr noundef nonnull align 8 dereferenceable(377) %this1)
  %vtable = load ptr, ptr %2, align 8
  %vfn = getelementptr inbounds ptr, ptr %vtable, i64 22
  %3 = load ptr, ptr %vfn, align 8
  call void %3(ptr noundef nonnull align 8 dereferenceable(2044) %2, i32 noundef %call)
  br label %if.end5

if.end5:                                          ; preds = %if.then4, %if.end, %if.then
  ret void
}

; Function Attrs: mustprogress uwtable
define dso_local void @_ZN3net18ReliableQuicStream18OnConnectionClosedENS_13QuicErrorCodeENS_21ConnectionCloseSourceE(ptr noundef nonnull align 8 dereferenceable(377) %this, i32 noundef %error, i32 noundef %0) unnamed_addr #0 align 2 {
entry:
  %this.addr = alloca ptr, align 8
  %error.addr = alloca i32, align 4
  %.addr = alloca i32, align 4
  store ptr %this, ptr %this.addr, align 8
  store i32 %error, ptr %error.addr, align 4
  store i32 %0, ptr %.addr, align 4
  %this1 = load ptr, ptr %this.addr, align 8
  %read_side_closed_ = getelementptr inbounds %"class.net::ReliableQuicStream", ptr %this1, i32 0, i32 11
  %1 = load i8, ptr %read_side_closed_, align 8
  %tobool = trunc i8 %1 to i1
  br i1 %tobool, label %land.lhs.true, label %if.end

land.lhs.true:                                    ; preds = %entry
  %write_side_closed_ = getelementptr inbounds %"class.net::ReliableQuicStream", ptr %this1, i32 0, i32 12
  %2 = load i8, ptr %write_side_closed_, align 1
  %tobool2 = trunc i8 %2 to i1
  br i1 %tobool2, label %if.then, label %if.end

if.then:                                          ; preds = %land.lhs.true
  br label %return

if.end:                                           ; preds = %land.lhs.true, %entry
  %3 = load i32, ptr %error.addr, align 4
  %cmp = icmp ne i32 %3, 0
  br i1 %cmp, label %if.then3, label %if.end4

if.then3:                                         ; preds = %if.end
  %stream_error_ = getelementptr inbounds %"class.net::ReliableQuicStream", ptr %this1, i32 0, i32 9
  store i32 4, ptr %stream_error_, align 8
  %4 = load i32, ptr %error.addr, align 4
  %connection_error_ = getelementptr inbounds %"class.net::ReliableQuicStream", ptr %this1, i32 0, i32 10
  store i32 %4, ptr %connection_error_, align 4
  br label %if.end4

if.end4:                                          ; preds = %if.then3, %if.end
  %vtable = load ptr, ptr %this1, align 8
  %vfn = getelementptr inbounds ptr, ptr %vtable, i64 14
  %5 = load ptr, ptr %vfn, align 8
  call void %5(ptr noundef nonnull align 8 dereferenceable(377) %this1)
  call void @_ZN3net18ReliableQuicStream13CloseReadSideEv(ptr noundef nonnull align 8 dereferenceable(377) %this1)
  br label %return

return:                                           ; preds = %if.end4, %if.then
  ret void
}