; Function Attrs: mustprogress uwtable
define dso_local void @_ZN3net18ReliableQuicStream18OnConnectionClosedENS_13QuicErrorCodeENS_21ConnectionCloseSourceE(ptr noundef nonnull align 8 dereferenceable(377) %this, i32 noundef %error, i32 %0) unnamed_addr #2 align 2 {
entry:
  %read_side_closed_ = getelementptr inbounds i8, ptr %this, i64 256
  %1 = load i8, ptr %read_side_closed_, align 8
  %2 = and i8 %1, 1
  %tobool.not = icmp eq i8 %2, 0
  br i1 %tobool.not, label %if.end, label %land.lhs.true

land.lhs.true:                                    ; preds = %entry
  %write_side_closed_ = getelementptr inbounds i8, ptr %this, i64 257
  %3 = load i8, ptr %write_side_closed_, align 1
  %4 = and i8 %3, 1
  %tobool2.not = icmp eq i8 %4, 0
  br i1 %tobool2.not, label %if.end, label %return

if.end:                                           ; preds = %land.lhs.true, %entry
  %cmp.not = icmp eq i32 %error, 0
  br i1 %cmp.not, label %if.end4, label %if.then3

if.then3:                                         ; preds = %if.end
  %stream_error_ = getelementptr inbounds i8, ptr %this, i64 248
  store i32 4, ptr %stream_error_, align 8
  %connection_error_ = getelementptr inbounds i8, ptr %this, i64 252
  store i32 %error, ptr %connection_error_, align 4
  br label %if.end4

if.end4:                                          ; preds = %if.then3, %if.end
  %vtable = load ptr, ptr %this, align 8
  %vfn = getelementptr inbounds i8, ptr %vtable, i64 112
  %5 = load ptr, ptr %vfn, align 8
  tail call void %5(ptr noundef nonnull align 8 dereferenceable(377) %this)
  %6 = load i8, ptr %read_side_closed_, align 8
  %7 = and i8 %6, 1
  %tobool.not.i = icmp eq i8 %7, 0
  br i1 %tobool.not.i, label %if.end.i, label %return

if.end.i:                                         ; preds = %if.end4
  store i8 1, ptr %read_side_closed_, align 8
  %sequencer_.i = getelementptr inbounds i8, ptr %this, i64 40
  tail call void @_ZN3net19QuicStreamSequencer13ReleaseBufferEv(ptr noundef nonnull align 8 dereferenceable(169) %sequencer_.i)
  %write_side_closed_.i = getelementptr inbounds i8, ptr %this, i64 257
  %8 = load i8, ptr %write_side_closed_.i, align 1
  %9 = and i8 %8, 1
  %tobool3.not.i = icmp eq i8 %9, 0
  br i1 %tobool3.not.i, label %return, label %if.then4.i

if.then4.i:                                       ; preds = %if.end.i
  %session_.i = getelementptr inbounds i8, ptr %this, i64 224
  %10 = load ptr, ptr %session_.i, align 8
  %id_.i.i = getelementptr inbounds i8, ptr %this, i64 216
  %11 = load i32, ptr %id_.i.i, align 8
  %vtable.i = load ptr, ptr %10, align 8
  %vfn.i = getelementptr inbounds i8, ptr %vtable.i, i64 176
  %12 = load ptr, ptr %vfn.i, align 8
  tail call void %12(ptr noundef nonnull align 8 dereferenceable(2044) %10, i32 noundef %11)
  br label %return

return:                                           ; preds = %if.then4.i, %if.end.i, %if.end4, %land.lhs.true
  ret void
}